; Function Attrs: nounwind uwtable
define noalias nonnull ptr @l_Lean_PrettyPrinter_Delaborator_TopDownAnalyze_tryUnify___lambda__1___boxed(ptr noundef %0, ptr noundef %1, ptr noundef %2, ptr noundef %3, ptr noundef %4, ptr noundef %5, ptr noundef %6, ptr noundef %7) #1 {
  tail call void @lean_inc_heartbeat() #7
  %9 = tail call noalias ptr @mi_malloc_small(i64 noundef 24) #7
  %10 = icmp eq ptr %9, null
  br i1 %10, label %11, label %l_Lean_PrettyPrinter_Delaborator_TopDownAnalyze_tryUnify___lambda__1.exit

11:                                               ; preds = %8
  tail call void @lean_internal_panic_out_of_memory() #8
  unreachable

l_Lean_PrettyPrinter_Delaborator_TopDownAnalyze_tryUnify___lambda__1.exit: ; preds = %8
  %12 = getelementptr inbounds nuw i8, ptr %9, i64 4
  store i32 1, ptr %9, align 4, !tbaa !8
  store i32 131096, ptr %12, align 4
  %13 = getelementptr inbounds nuw i8, ptr %9, i64 8
  store ptr inttoptr (i64 1 to ptr), ptr %13, align 8, !tbaa !11
  %14 = getelementptr inbounds nuw i8, ptr %9, i64 16
  store ptr %7, ptr %14, align 8, !tbaa !11
  %15 = ptrtoint ptr %6 to i64
  %16 = and i64 %15, 1
  %.not = icmp eq i64 %16, 0
  br i1 %.not, label %17, label %lean_dec.exit21

17:                                               ; preds = %l_Lean_PrettyPrinter_Delaborator_TopDownAnalyze_tryUnify___lambda__1.exit
  %18 = load i32, ptr %6, align 4, !tbaa !8
  %19 = icmp sgt i32 %18, 1
  br i1 %19, label %20, label %22, !prof !13

20:                                               ; preds = %17
  %21 = add nsw i32 %18, -1
  store i32 %21, ptr %6, align 4, !tbaa !8
  br label %lean_dec.exit21

22:                                               ; preds = %17
  %.not.i = icmp eq i32 %18, 0
  br i1 %.not.i, label %lean_dec.exit21, label %23

23:                                               ; preds = %22
  tail call void @lean_dec_ref_cold(ptr noundef nonnull %6) #7
  br label %lean_dec.exit21

lean_dec.exit21:                                  ; preds = %23, %22, %20, %l_Lean_PrettyPrinter_Delaborator_TopDownAnalyze_tryUnify___lambda__1.exit
  %24 = ptrtoint ptr %5 to i64
  %25 = and i64 %24, 1
  %.not34 = icmp eq i64 %25, 0
  br i1 %.not34, label %26, label %lean_dec.exit20

26:                                               ; preds = %lean_dec.exit21
  %27 = load i32, ptr %5, align 4, !tbaa !8
  %28 = icmp sgt i32 %27, 1
  br i1 %28, label %29, label %31, !prof !13

29:                                               ; preds = %26
  %30 = add nsw i32 %27, -1
  store i32 %30, ptr %5, align 4, !tbaa !8
  br label %lean_dec.exit20

31:                                               ; preds = %26
  %.not.i22 = icmp eq i32 %27, 0
  br i1 %.not.i22, label %lean_dec.exit20, label %32

32:                                               ; preds = %31
  tail call void @lean_dec_ref_cold(ptr noundef nonnull %5) #7
  br label %lean_dec.exit20

lean_dec.exit20:                                  ; preds = %32, %31, %29, %lean_dec.exit21
  %33 = ptrtoint ptr %4 to i64
  %34 = and i64 %33, 1
  %.not35 = icmp eq i64 %34, 0
  br i1 %.not35, label %35, label %lean_dec.exit19

35:                                               ; preds = %lean_dec.exit20
  %36 = load i32, ptr %4, align 4, !tbaa !8
  %37 = icmp sgt i32 %36, 1
  br i1 %37, label %38, label %40, !prof !13

38:                                               ; preds = %35
  %39 = add nsw i32 %36, -1
  store i32 %39, ptr %4, align 4, !tbaa !8
  br label %lean_dec.exit19

40:                                               ; preds = %35
  %.not.i24 = icmp eq i32 %36, 0
  br i1 %.not.i24, label %lean_dec.exit19, label %41

41:                                               ; preds = %40
  tail call void @lean_dec_ref_cold(ptr noundef nonnull %4) #7
  br label %lean_dec.exit19

lean_dec.exit19:                                  ; preds = %41, %40, %38, %lean_dec.exit20
  %42 = ptrtoint ptr %3 to i64
  %43 = and i64 %42, 1
  %.not36 = icmp eq i64 %43, 0
  br i1 %.not36, label %44, label %lean_dec.exit18

44:                                               ; preds = %lean_dec.exit19
  %45 = load i32, ptr %3, align 4, !tbaa !8
  %46 = icmp sgt i32 %45, 1
  br i1 %46, label %47, label %49, !prof !13

47:                                               ; preds = %44
  %48 = add nsw i32 %45, -1
  store i32 %48, ptr %3, align 4, !tbaa !8
  br label %lean_dec.exit18

49:                                               ; preds = %44
  %.not.i26 = icmp eq i32 %45, 0
  br i1 %.not.i26, label %lean_dec.exit18, label %50

50:                                               ; preds = %49
  tail call void @lean_dec_ref_cold(ptr noundef nonnull %3) #7
  br label %lean_dec.exit18

lean_dec.exit18:                                  ; preds = %50, %49, %47, %lean_dec.exit19
  %51 = ptrtoint ptr %2 to i64
  %52 = and i64 %51, 1
  %.not37 = icmp eq i64 %52, 0
  br i1 %.not37, label %53, label %lean_dec.exit17

53:                                               ; preds = %lean_dec.exit18
  %54 = load i32, ptr %2, align 4, !tbaa !8
  %55 = icmp sgt i32 %54, 1
  br i1 %55, label %56, label %58, !prof !13

56:                                               ; preds = %53
  %57 = add nsw i32 %54, -1
  store i32 %57, ptr %2, align 4, !tbaa !8
  br label %lean_dec.exit17

58:                                               ; preds = %53
  %.not.i28 = icmp eq i32 %54, 0
  br i1 %.not.i28, label %lean_dec.exit17, label %59

59:                                               ; preds = %58
  tail call void @lean_dec_ref_cold(ptr noundef nonnull %2) #7
  br label %lean_dec.exit17

lean_dec.exit17:                                  ; preds = %59, %58, %56, %lean_dec.exit18
  %60 = ptrtoint ptr %1 to i64
  %61 = and i64 %60, 1
  %.not38 = icmp eq i64 %61, 0
  br i1 %.not38, label %62, label %lean_dec.exit16

62:                                               ; preds = %lean_dec.exit17
  %63 = load i32, ptr %1, align 4, !tbaa !8
  %64 = icmp sgt i32 %63, 1
  br i1 %64, label %65, label %67, !prof !13

65:                                               ; preds = %62
  %66 = add nsw i32 %63, -1
  store i32 %66, ptr %1, align 4, !tbaa !8
  br label %lean_dec.exit16

67:                                               ; preds = %62
  %.not.i30 = icmp eq i32 %63, 0
  br i1 %.not.i30, label %lean_dec.exit16, label %68

68:                                               ; preds = %67
  tail call void @lean_dec_ref_cold(ptr noundef nonnull %1) #7
  br label %lean_dec.exit16

lean_dec.exit16:                                  ; preds = %68, %67, %65, %lean_dec.exit17
  %69 = ptrtoint ptr %0 to i64
  %70 = and i64 %69, 1
  %.not39 = icmp eq i64 %70, 0
  br i1 %.not39, label %71, label %lean_dec.exit

71:                                               ; preds = %lean_dec.exit16
  %72 = load i32, ptr %0, align 4, !tbaa !8
  %73 = icmp sgt i32 %72, 1
  br i1 %73, label %74, label %76, !prof !13

74:                                               ; preds = %71
  %75 = add nsw i32 %72, -1
  store i32 %75, ptr %0, align 4, !tbaa !8
  br label %lean_dec.exit

76:                                               ; preds = %71
  %.not.i32 = icmp eq i32 %72, 0
  br i1 %.not.i32, label %lean_dec.exit, label %77

77:                                               ; preds = %76
  tail call void @lean_dec_ref_cold(ptr noundef nonnull %0) #7
  br label %lean_dec.exit

lean_dec.exit:                                    ; preds = %77, %76, %74, %lean_dec.exit16
  ret ptr %9
}